target datalayout = "e-m:e-p270:32:32-p271:32:32-p272:64:64-i64:64-i128:128-f80:128-n8:16:32:64-S128"
target triple = "x86_64-unknown-linux-gnu"

%struct.UText = type { i32, i32, i32, i32, i64, i32, i32, i64, i32, i32, ptr, ptr, ptr, ptr, ptr, ptr, ptr, ptr, i64, i32, i32, i64, i32, i32 }

; Function Attrs: mustprogress nounwind uwtable
define internal noundef i32 @_ZL8pinIndexRll(ptr noundef nonnull align 8 dereferenceable(8) %index, i64 noundef %limit) #1 {
entry:
  %index.addr = alloca ptr, align 8
  %limit.addr = alloca i64, align 8
  store ptr %index, ptr %index.addr, align 8
  store i64 %limit, ptr %limit.addr, align 8
  %0 = load ptr, ptr %index.addr, align 8
  %1 = load i64, ptr %0, align 8
  %cmp = icmp slt i64 %1, 0
  br i1 %cmp, label %if.then, label %if.else

if.then:                                          ; preds = %entry
  %2 = load ptr, ptr %index.addr, align 8
  store i64 0, ptr %2, align 8
  br label %if.end3

if.else:                                          ; preds = %entry
  %3 = load ptr, ptr %index.addr, align 8
  %4 = load i64, ptr %3, align 8
  %5 = load i64, ptr %limit.addr, align 8
  %cmp1 = icmp sgt i64 %4, %5
  br i1 %cmp1, label %if.then2, label %if.end

if.then2:                                         ; preds = %if.else
  %6 = load i64, ptr %limit.addr, align 8
  %7 = load ptr, ptr %index.addr, align 8
  store i64 %6, ptr %7, align 8
  br label %if.end

if.end:                                           ; preds = %if.then2, %if.else
  br label %if.end3

if.end3:                                          ; preds = %if.end, %if.then
  %8 = load ptr, ptr %index.addr, align 8
  %9 = load i64, ptr %8, align 8
  %conv = trunc i64 %9 to i32
  ret i32 %conv
}

; Function Attrs: mustprogress nounwind uwtable
define internal noundef signext i8 @_ZL16unistrTextAccessP5UTextla(ptr noundef %ut, i64 noundef %index, i8 noundef signext %forward) #1 {
entry:
  %ut.addr = alloca ptr, align 8
  %index.addr = alloca i64, align 8
  %forward.addr = alloca i8, align 1
  %length = alloca i32, align 4
  %retVal = alloca i8, align 1
  store ptr %ut, ptr %ut.addr, align 8
  store i64 %index, ptr %index.addr, align 8
  store i8 %forward, ptr %forward.addr, align 1
  %0 = load ptr, ptr %ut.addr, align 8
  %chunkLength = getelementptr inbounds %struct.UText, ptr %0, i32 0, i32 9
  %1 = load i32, ptr %chunkLength, align 4
  store i32 %1, ptr %length, align 4
  %2 = load i32, ptr %length, align 4
  %conv = sext i32 %2 to i64
  %call = call noundef i32 @_ZL8pinIndexRll(ptr noundef nonnull align 8 dereferenceable(8) %index.addr, i64 noundef %conv)
  %3 = load ptr, ptr %ut.addr, align 8
  %chunkOffset = getelementptr inbounds %struct.UText, ptr %3, i32 0, i32 8
  store i32 %call, ptr %chunkOffset, align 8
  %4 = load i8, ptr %forward.addr, align 1
  %tobool = icmp ne i8 %4, 0
  br i1 %tobool, label %land.lhs.true, label %lor.rhs

land.lhs.true:                                    ; preds = %entry
  %5 = load i64, ptr %index.addr, align 8
  %6 = load i32, ptr %length, align 4
  %conv1 = sext i32 %6 to i64
  %cmp = icmp slt i64 %5, %conv1
  br i1 %cmp, label %lor.end, label %lor.rhs

lor.rhs:                                          ; preds = %land.lhs.true, %entry
  %7 = load i8, ptr %forward.addr, align 1
  %tobool2 = icmp ne i8 %7, 0
  br i1 %tobool2, label %land.end, label %land.rhs

land.rhs:                                         ; preds = %lor.rhs
  %8 = load i64, ptr %index.addr, align 8
  %cmp3 = icmp sgt i64 %8, 0
  br label %land.end

land.end:                                         ; preds = %land.rhs, %lor.rhs
  %9 = phi i1 [ false, %lor.rhs ], [ %cmp3, %land.rhs ]
  br label %lor.end

lor.end:                                          ; preds = %land.end, %land.lhs.true
  %10 = phi i1 [ true, %land.lhs.true ], [ %9, %land.end ]
  %conv4 = zext i1 %10 to i8
  store i8 %conv4, ptr %retVal, align 1
  %11 = load i8, ptr %retVal, align 1
  ret i8 %11
}