; Function Attrs: mustprogress nofree norecurse nosync nounwind willreturn memory(argmem: readwrite) uwtable
define internal noundef signext i8 @_ZL16unistrTextAccessP5UTextla(ptr nocapture noundef %ut, i64 noundef %index, i8 noundef signext %forward) #2 {
entry:
  %chunkLength = getelementptr inbounds i8, ptr %ut, i64 44
  %0 = load i32, ptr %chunkLength, align 4
  %conv = sext i32 %0 to i64
  %cmp.i = icmp slt i64 %index, 0
  %spec.select = tail call i64 @llvm.smin.i64(i64 %conv, i64 %index)
  %index.addr.0 = select i1 %cmp.i, i64 0, i64 %spec.select
  %1 = trunc i64 %spec.select to i32
  %conv.i = select i1 %cmp.i, i32 0, i32 %1
  %chunkOffset = getelementptr inbounds i8, ptr %ut, i64 40
  store i32 %conv.i, ptr %chunkOffset, align 8
  %tobool.not = icmp eq i8 %forward, 0
  %cmp = icmp slt i64 %index.addr.0, %conv
  %cmp3 = icmp sgt i64 %index.addr.0, 0
  %narrow = select i1 %tobool.not, i1 %cmp3, i1 %cmp
  %conv4 = zext i1 %narrow to i8
  ret i8 %conv4
}